; Function Attrs: mustprogress nounwind uwtable
define internal fastcc void @_ZSt8_DestroyIPN5Yosys7hashlib4dictIPNS0_5RTLIL4CellEN12_GLOBAL__N_111SimInstance10ff_state_tENS1_8hash_opsIS5_EEE7entry_tEEvT_SE_(ptr noundef %0, ptr noundef readnone %1) unnamed_addr #3 personality ptr @__gxx_personality_v0 {
  %.not4.i = icmp eq ptr %0, %1
  br i1 %.not4.i, label %_ZNSt12_Destroy_auxILb0EE9__destroyIPN5Yosys7hashlib4dictIPNS2_5RTLIL4CellEN12_GLOBAL__N_111SimInstance10ff_state_tENS3_8hash_opsIS7_EEE7entry_tEEEvT_SG_.exit, label %.lr.ph.i

.lr.ph.i:                                         ; preds = %2, %_ZSt8_DestroyIN5Yosys7hashlib4dictIPNS0_5RTLIL4CellEN12_GLOBAL__N_111SimInstance10ff_state_tENS1_8hash_opsIS5_EEE7entry_tEEvPT_.exit.i
  %.05.i = phi ptr [ %10, %_ZSt8_DestroyIN5Yosys7hashlib4dictIPNS0_5RTLIL4CellEN12_GLOBAL__N_111SimInstance10ff_state_tENS1_8hash_opsIS5_EEE7entry_tEEvPT_.exit.i ], [ %0, %2 ]
  %3 = getelementptr inbounds i8, ptr %.05.i, i64 80
  tail call void @_ZN5Yosys6FfDataD2Ev(ptr noundef nonnull align 8 dereferenceable(856) %3) #31
  %4 = getelementptr inbounds i8, ptr %.05.i, i64 48
  %5 = load ptr, ptr %4, align 8
  %.not.i.i.i.i.i.i.i.i.i = icmp eq ptr %5, null
  br i1 %.not.i.i.i.i.i.i.i.i.i, label %_ZN5Yosys5RTLIL5ConstD2Ev.exit.i.i.i.i.i, label %6

6:                                                ; preds = %.lr.ph.i
  tail call void @_ZdlPv(ptr noundef nonnull %5) #32
  br label %_ZN5Yosys5RTLIL5ConstD2Ev.exit.i.i.i.i.i

_ZN5Yosys5RTLIL5ConstD2Ev.exit.i.i.i.i.i:         ; preds = %6, %.lr.ph.i
  %7 = getelementptr inbounds i8, ptr %.05.i, i64 16
  %8 = load ptr, ptr %7, align 8
  %.not.i.i.i.i1.i.i.i.i.i = icmp eq ptr %8, null
  br i1 %.not.i.i.i.i1.i.i.i.i.i, label %_ZSt8_DestroyIN5Yosys7hashlib4dictIPNS0_5RTLIL4CellEN12_GLOBAL__N_111SimInstance10ff_state_tENS1_8hash_opsIS5_EEE7entry_tEEvPT_.exit.i, label %9

9:                                                ; preds = %_ZN5Yosys5RTLIL5ConstD2Ev.exit.i.i.i.i.i
  tail call void @_ZdlPv(ptr noundef nonnull %8) #32
  br label %_ZSt8_DestroyIN5Yosys7hashlib4dictIPNS0_5RTLIL4CellEN12_GLOBAL__N_111SimInstance10ff_state_tENS1_8hash_opsIS5_EEE7entry_tEEvPT_.exit.i

_ZSt8_DestroyIN5Yosys7hashlib4dictIPNS0_5RTLIL4CellEN12_GLOBAL__N_111SimInstance10ff_state_tENS1_8hash_opsIS5_EEE7entry_tEEvPT_.exit.i: ; preds = %9, %_ZN5Yosys5RTLIL5ConstD2Ev.exit.i.i.i.i.i
  %10 = getelementptr inbounds i8, ptr %.05.i, i64 944
  %.not.i = icmp eq ptr %10, %1
  br i1 %.not.i, label %_ZNSt12_Destroy_auxILb0EE9__destroyIPN5Yosys7hashlib4dictIPNS2_5RTLIL4CellEN12_GLOBAL__N_111SimInstance10ff_state_tENS3_8hash_opsIS7_EEE7entry_tEEEvT_SG_.exit, label %.lr.ph.i, !llvm.loop !379

_ZNSt12_Destroy_auxILb0EE9__destroyIPN5Yosys7hashlib4dictIPNS2_5RTLIL4CellEN12_GLOBAL__N_111SimInstance10ff_state_tENS3_8hash_opsIS7_EEE7entry_tEEEvT_SG_.exit: ; preds = %_ZSt8_DestroyIN5Yosys7hashlib4dictIPNS0_5RTLIL4CellEN12_GLOBAL__N_111SimInstance10ff_state_tENS1_8hash_opsIS5_EEE7entry_tEEvPT_.exit.i, %2
  ret void
}